; Function Attrs: nounwind uwtable
define hidden void @zim_ArrayObject_getIteratorClass(ptr nocapture noundef readonly %0, ptr nocapture noundef writeonly %1) #0 {
  %3 = getelementptr inbounds i8, ptr %0, i64 44
  %4 = load i32, ptr %3, align 4
  %.not = icmp eq i32 %4, 0
  br i1 %.not, label %.critedge, label %5

5:                                                ; preds = %2
  tail call void @zend_wrong_parameters_none_error() #11
  %6 = load ptr, ptr getelementptr inbounds (%struct._zend_executor_globals, ptr @executor_globals, i64 0, i32 50), align 8
  %7 = icmp ne ptr %6, null
  tail call void @llvm.assume(i1 %7)
  br label %27

.critedge:                                        ; preds = %2
  %8 = getelementptr inbounds i8, ptr %0, i64 32
  %9 = load ptr, ptr %8, align 8
  %10 = getelementptr inbounds i8, ptr %9, i64 -8
  %11 = load ptr, ptr %10, align 8
  %12 = getelementptr inbounds i8, ptr %11, i64 8
  %13 = load ptr, ptr %12, align 8
  %14 = getelementptr inbounds i8, ptr %13, i64 4
  %15 = load i32, ptr %14, align 4
  %16 = and i32 %15, 64
  %.not14 = icmp eq i32 %16, 0
  br i1 %.not14, label %17, label %20

17:                                               ; preds = %.critedge
  %18 = load i32, ptr %13, align 4
  %19 = add i32 %18, 1
  store i32 %19, ptr %13, align 4
  %.pre = load ptr, ptr %10, align 8
  %.phi.trans.insert = getelementptr inbounds i8, ptr %.pre, i64 8
  %.pre16 = load ptr, ptr %.phi.trans.insert, align 8
  br label %20

20:                                               ; preds = %.critedge, %17
  %21 = phi ptr [ %13, %.critedge ], [ %.pre16, %17 ]
  store ptr %21, ptr %1, align 8
  %22 = getelementptr inbounds i8, ptr %21, i64 4
  %23 = load i32, ptr %22, align 4
  %24 = and i32 %23, 64
  %.not15 = icmp eq i32 %24, 0
  %25 = select i1 %.not15, i32 262, i32 6
  %26 = getelementptr inbounds i8, ptr %1, i64 8
  store i32 %25, ptr %26, align 8
  br label %27

27:                                               ; preds = %20, %5
  ret void
}